target datalayout = "e-m:e-p270:32:32-p271:32:32-p272:64:64-i64:64-i128:128-f80:128-n8:16:32:64-S128"
target triple = "x86_64-pc-linux-gnu"

%struct.Gia_Man_t_ = type { ptr, ptr, i32, i32, i32, i32, ptr, ptr, i32, i32, i32, ptr, ptr, %struct.Vec_Int_t_, %struct.Vec_Int_t_, i32, i32, i32, %struct.Vec_Int_t_, ptr, ptr, ptr, i32, i32, i32, i32, ptr, ptr, ptr, ptr, ptr, i32, i32, ptr, i32, ptr, ptr, ptr, ptr, ptr, ptr, ptr, ptr, ptr, ptr, ptr, ptr, ptr, ptr, ptr, ptr, ptr, ptr, %struct.Vec_Int_t_, %struct.Vec_Int_t_, ptr, ptr, ptr, ptr, ptr, ptr, ptr, ptr, ptr, ptr, ptr, ptr, ptr, ptr, ptr, ptr, ptr, ptr, ptr, ptr, ptr, i32, float, float, ptr, ptr, i32, ptr, ptr, ptr, ptr, ptr, ptr, ptr, ptr, ptr, ptr, ptr, ptr, ptr, ptr, ptr, i64, i64, ptr, ptr, i32, i32, i32, i32, i32, i32, i32, i32, i32, i32, i32, i32, ptr, ptr, ptr, ptr, ptr, ptr, ptr, ptr, i32, i32, i32, ptr, i32, i32, ptr, ptr, ptr, ptr, ptr, ptr, i32, i32, ptr, %struct.Vec_Int_t_, %struct.Vec_Int_t_, %struct.Vec_Int_t_, ptr, ptr, ptr, i32, i32, i32, i32, ptr, ptr, ptr, ptr, ptr }
%struct.Vec_Int_t_ = type { i32, i32, ptr }
%struct.Gia_Obj_t_ = type <{ i64, i32 }>
%struct.Vec_Wec_t_ = type { i32, i32, ptr }

; Function Attrs: inlinehint nounwind uwtable
define internal ptr @Gia_ObjFanin1(ptr noundef %0) #2 {
  %2 = alloca ptr, align 8
  store ptr %0, ptr %2, align 8, !tbaa !30
  %3 = load ptr, ptr %2, align 8, !tbaa !30
  %4 = load ptr, ptr %2, align 8, !tbaa !30
  %5 = load i64, ptr %4, align 4
  %6 = lshr i64 %5, 32
  %7 = and i64 %6, 536870911
  %8 = trunc i64 %7 to i32
  %9 = sext i32 %8 to i64
  %10 = sub i64 0, %9
  %11 = getelementptr inbounds %struct.Gia_Obj_t_, ptr %3, i64 %10
  ret ptr %11
}

; Function Attrs: inlinehint nounwind uwtable
define internal i32 @Gia_ObjFaninC1(ptr noundef %0) #2 {
  %2 = alloca ptr, align 8
  store ptr %0, ptr %2, align 8, !tbaa !30
  %3 = load ptr, ptr %2, align 8, !tbaa !30
  %4 = load i64, ptr %3, align 4
  %5 = lshr i64 %4, 61
  %6 = and i64 %5, 1
  %7 = trunc i64 %6 to i32
  ret i32 %7
}

; Function Attrs: inlinehint nounwind uwtable
define internal i32 @Gia_ObjIsAnd(ptr noundef %0) #2 {
  %2 = alloca ptr, align 8
  store ptr %0, ptr %2, align 8, !tbaa !30
  %3 = load ptr, ptr %2, align 8, !tbaa !30
  %4 = load i64, ptr %3, align 4
  %5 = lshr i64 %4, 31
  %6 = and i64 %5, 1
  %7 = trunc i64 %6 to i32
  %8 = icmp ne i32 %7, 0
  br i1 %8, label %15, label %9

9:                                                ; preds = %1
  %10 = load ptr, ptr %2, align 8, !tbaa !30
  %11 = load i64, ptr %10, align 4
  %12 = and i64 %11, 536870911
  %13 = trunc i64 %12 to i32
  %14 = icmp ne i32 %13, 536870911
  br label %15

15:                                               ; preds = %9, %1
  %16 = phi i1 [ false, %1 ], [ %14, %9 ]
  %17 = zext i1 %16 to i32
  ret i32 %17
}

; Function Attrs: inlinehint nounwind uwtable
define internal ptr @Gia_ObjFanin0(ptr noundef %0) #2 {
  %2 = alloca ptr, align 8
  store ptr %0, ptr %2, align 8, !tbaa !30
  %3 = load ptr, ptr %2, align 8, !tbaa !30
  %4 = load ptr, ptr %2, align 8, !tbaa !30
  %5 = load i64, ptr %4, align 4
  %6 = and i64 %5, 536870911
  %7 = trunc i64 %6 to i32
  %8 = sext i32 %7 to i64
  %9 = sub i64 0, %8
  %10 = getelementptr inbounds %struct.Gia_Obj_t_, ptr %3, i64 %9
  ret ptr %10
}

; Function Attrs: inlinehint nounwind uwtable
define internal i32 @Gia_ObjFaninC0(ptr noundef %0) #2 {
  %2 = alloca ptr, align 8
  store ptr %0, ptr %2, align 8, !tbaa !30
  %3 = load ptr, ptr %2, align 8, !tbaa !30
  %4 = load i64, ptr %3, align 4
  %5 = lshr i64 %4, 29
  %6 = and i64 %5, 1
  %7 = trunc i64 %6 to i32
  ret i32 %7
}

; Function Attrs: inlinehint nounwind uwtable
define internal ptr @Gia_ManObj(ptr noundef %0, i32 noundef %1) #2 {
  %3 = alloca ptr, align 8
  %4 = alloca i32, align 4
  store ptr %0, ptr %3, align 8, !tbaa !3
  store i32 %1, ptr %4, align 4, !tbaa !8
  %5 = load ptr, ptr %3, align 8, !tbaa !3
  %6 = getelementptr inbounds nuw %struct.Gia_Man_t_, ptr %5, i32 0, i32 6
  %7 = load ptr, ptr %6, align 8, !tbaa !35
  %8 = load i32, ptr %4, align 4, !tbaa !8
  %9 = sext i32 %8 to i64
  %10 = getelementptr inbounds %struct.Gia_Obj_t_, ptr %7, i64 %9
  ret ptr %10
}

; Function Attrs: inlinehint nounwind uwtable
define internal i32 @Vec_IntEntry(ptr noundef %0, i32 noundef %1) #2 {
  %3 = alloca ptr, align 8
  %4 = alloca i32, align 4
  store ptr %0, ptr %3, align 8, !tbaa !36
  store i32 %1, ptr %4, align 4, !tbaa !8
  %5 = load ptr, ptr %3, align 8, !tbaa !36
  %6 = getelementptr inbounds nuw %struct.Vec_Int_t_, ptr %5, i32 0, i32 2
  %7 = load ptr, ptr %6, align 8, !tbaa !40
  %8 = load i32, ptr %4, align 4, !tbaa !8
  %9 = sext i32 %8 to i64
  %10 = getelementptr inbounds i32, ptr %7, i64 %9
  %11 = load i32, ptr %10, align 4, !tbaa !8
  ret i32 %11
}

; Function Attrs: inlinehint nounwind uwtable
define internal i32 @Vec_IntSize(ptr noundef %0) #2 {
  %2 = alloca ptr, align 8
  store ptr %0, ptr %2, align 8, !tbaa !36
  %3 = load ptr, ptr %2, align 8, !tbaa !36
  %4 = getelementptr inbounds nuw %struct.Vec_Int_t_, ptr %3, i32 0, i32 1
  %5 = load i32, ptr %4, align 4, !tbaa !38
  ret i32 %5
}

; Function Attrs: inlinehint nounwind uwtable
define internal ptr @Vec_WecEntry(ptr noundef %0, i32 noundef %1) #2 {
  %3 = alloca ptr, align 8
  %4 = alloca i32, align 4
  store ptr %0, ptr %3, align 8, !tbaa !50
  store i32 %1, ptr %4, align 4, !tbaa !8
  %5 = load ptr, ptr %3, align 8, !tbaa !50
  %6 = getelementptr inbounds nuw %struct.Vec_Wec_t_, ptr %5, i32 0, i32 2
  %7 = load ptr, ptr %6, align 8, !tbaa !56
  %8 = load i32, ptr %4, align 4, !tbaa !8
  %9 = sext i32 %8 to i64
  %10 = getelementptr inbounds %struct.Vec_Int_t_, ptr %7, i64 %9
  ret ptr %10
}

; Function Attrs: inlinehint nounwind uwtable
define internal i32 @Vec_WecSize(ptr noundef %0) #2 {
  %2 = alloca ptr, align 8
  store ptr %0, ptr %2, align 8, !tbaa !50
  %3 = load ptr, ptr %2, align 8, !tbaa !50
  %4 = getelementptr inbounds nuw %struct.Vec_Wec_t_, ptr %3, i32 0, i32 1
  %5 = load i32, ptr %4, align 4, !tbaa !54
  ret i32 %5
}

; Function Attrs: nounwind uwtable
define ptr @Gia_Iso4Gia(ptr noundef %0) #0 {
  %2 = alloca ptr, align 8
  %3 = alloca ptr, align 8
  %4 = alloca ptr, align 8
  %5 = alloca i32, align 4
  %6 = alloca ptr, align 8
  %7 = alloca i32, align 4
  %8 = alloca [2 x i32], align 4
  store ptr %0, ptr %2, align 8, !tbaa !3
  call void @llvm.lifetime.start.p0(i64 8, ptr %3) #11
  %9 = load ptr, ptr %2, align 8, !tbaa !3
  %10 = call ptr @Gia_ManLevelizeR(ptr noundef %9)
  store ptr %10, ptr %3, align 8, !tbaa !50
  call void @llvm.lifetime.start.p0(i64 8, ptr %4) #11
  call void @llvm.lifetime.start.p0(i64 4, ptr %5) #11
  %11 = call i32 @Abc_Random(i32 noundef 1)
  store i32 0, ptr %5, align 4, !tbaa !8
  br label %12

12:                                               ; preds = %120, %1
  %13 = load i32, ptr %5, align 4, !tbaa !8
  %14 = load ptr, ptr %3, align 8, !tbaa !50
  %15 = call i32 @Vec_WecSize(ptr noundef %14)
  %16 = icmp slt i32 %13, %15
  br i1 %16, label %17, label %21

17:                                               ; preds = %12
  %18 = load ptr, ptr %3, align 8, !tbaa !50
  %19 = load i32, ptr %5, align 4, !tbaa !8
  %20 = call ptr @Vec_WecEntry(ptr noundef %18, i32 noundef %19)
  store ptr %20, ptr %4, align 8, !tbaa !36
  br label %21

21:                                               ; preds = %17, %12
  %22 = phi i1 [ false, %12 ], [ true, %17 ]
  br i1 %22, label %23, label %123

23:                                               ; preds = %21
  call void @llvm.lifetime.start.p0(i64 8, ptr %6) #11
  call void @llvm.lifetime.start.p0(i64 4, ptr %7) #11
  call void @llvm.lifetime.start.p0(i64 8, ptr %8) #11
  %24 = call i32 @Abc_Random(i32 noundef 0)
  store i32 %24, ptr %8, align 4, !tbaa !8
  %25 = getelementptr inbounds i32, ptr %8, i64 1
  %26 = call i32 @Abc_Random(i32 noundef 0)
  store i32 %26, ptr %25, align 4, !tbaa !8
  %27 = load i32, ptr %5, align 4, !tbaa !8
  %28 = icmp eq i32 %27, 0
  br i1 %28, label %29, label %66

29:                                               ; preds = %23
  store i32 0, ptr %7, align 4, !tbaa !8
  br label %30

30:                                               ; preds = %62, %29
  %31 = load i32, ptr %7, align 4, !tbaa !8
  %32 = load ptr, ptr %4, align 8, !tbaa !36
  %33 = call i32 @Vec_IntSize(ptr noundef %32)
  %34 = icmp slt i32 %31, %33
  br i1 %34, label %35, label %42

35:                                               ; preds = %30
  %36 = load ptr, ptr %2, align 8, !tbaa !3
  %37 = load ptr, ptr %4, align 8, !tbaa !36
  %38 = load i32, ptr %7, align 4, !tbaa !8
  %39 = call i32 @Vec_IntEntry(ptr noundef %37, i32 noundef %38)
  %40 = call ptr @Gia_ManObj(ptr noundef %36, i32 noundef %39)
  store ptr %40, ptr %6, align 8, !tbaa !30
  %41 = icmp ne ptr %40, null
  br label %42

42:                                               ; preds = %35, %30
  %43 = phi i1 [ false, %30 ], [ %41, %35 ]
  br i1 %43, label %44, label %65

44:                                               ; preds = %42
  %45 = call i32 @Abc_Random(i32 noundef 0)
  %46 = load ptr, ptr %6, align 8, !tbaa !30
  %47 = getelementptr inbounds nuw %struct.Gia_Obj_t_, ptr %46, i32 0, i32 1
  store i32 %45, ptr %47, align 4, !tbaa !31
  %48 = load ptr, ptr %6, align 8, !tbaa !30
  %49 = getelementptr inbounds nuw %struct.Gia_Obj_t_, ptr %48, i32 0, i32 1
  %50 = load i32, ptr %49, align 4, !tbaa !31
  %51 = load ptr, ptr %6, align 8, !tbaa !30
  %52 = call i32 @Gia_ObjFaninC0(ptr noundef %51)
  %53 = sext i32 %52 to i64
  %54 = getelementptr inbounds [2 x i32], ptr %8, i64 0, i64 %53
  %55 = load i32, ptr %54, align 4, !tbaa !8
  %56 = add i32 %50, %55
  %57 = load ptr, ptr %6, align 8, !tbaa !30
  %58 = call ptr @Gia_ObjFanin0(ptr noundef %57)
  %59 = getelementptr inbounds nuw %struct.Gia_Obj_t_, ptr %58, i32 0, i32 1
  %60 = load i32, ptr %59, align 4, !tbaa !31
  %61 = add i32 %60, %56
  store i32 %61, ptr %59, align 4, !tbaa !31
  br label %62

62:                                               ; preds = %44
  %63 = load i32, ptr %7, align 4, !tbaa !8
  %64 = add nsw i32 %63, 1
  store i32 %64, ptr %7, align 4, !tbaa !8
  br label %30, !llvm.loop !51

65:                                               ; preds = %42
  br label %119

66:                                               ; preds = %23
  store i32 0, ptr %7, align 4, !tbaa !8
  br label %67

67:                                               ; preds = %115, %66
  %68 = load i32, ptr %7, align 4, !tbaa !8
  %69 = load ptr, ptr %4, align 8, !tbaa !36
  %70 = call i32 @Vec_IntSize(ptr noundef %69)
  %71 = icmp slt i32 %68, %70
  br i1 %71, label %72, label %79

72:                                               ; preds = %67
  %73 = load ptr, ptr %2, align 8, !tbaa !3
  %74 = load ptr, ptr %4, align 8, !tbaa !36
  %75 = load i32, ptr %7, align 4, !tbaa !8
  %76 = call i32 @Vec_IntEntry(ptr noundef %74, i32 noundef %75)
  %77 = call ptr @Gia_ManObj(ptr noundef %73, i32 noundef %76)
  store ptr %77, ptr %6, align 8, !tbaa !30
  %78 = icmp ne ptr %77, null
  br label %79

79:                                               ; preds = %72, %67
  %80 = phi i1 [ false, %67 ], [ %78, %72 ]
  br i1 %80, label %81, label %118

81:                                               ; preds = %79
  %82 = load ptr, ptr %6, align 8, !tbaa !30
  %83 = call i32 @Gia_ObjIsAnd(ptr noundef %82)
  %84 = icmp ne i32 %83, 0
  br i1 %84, label %85, label %114

85:                                               ; preds = %81
  %86 = load ptr, ptr %6, align 8, !tbaa !30
  %87 = getelementptr inbounds nuw %struct.Gia_Obj_t_, ptr %86, i32 0, i32 1
  %88 = load i32, ptr %87, align 4, !tbaa !31
  %89 = load ptr, ptr %6, align 8, !tbaa !30
  %90 = call i32 @Gia_ObjFaninC0(ptr noundef %89)
  %91 = sext i32 %90 to i64
  %92 = getelementptr inbounds [2 x i32], ptr %8, i64 0, i64 %91
  %93 = load i32, ptr %92, align 4, !tbaa !8
  %94 = add i32 %88, %93
  %95 = load ptr, ptr %6, align 8, !tbaa !30
  %96 = call ptr @Gia_ObjFanin0(ptr noundef %95)
  %97 = getelementptr inbounds nuw %struct.Gia_Obj_t_, ptr %96, i32 0, i32 1
  %98 = load i32, ptr %97, align 4, !tbaa !31
  %99 = add i32 %98, %94
  store i32 %99, ptr %97, align 4, !tbaa !31
  %100 = load ptr, ptr %6, align 8, !tbaa !30
  %101 = getelementptr inbounds nuw %struct.Gia_Obj_t_, ptr %100, i32 0, i32 1
  %102 = load i32, ptr %101, align 4, !tbaa !31
  %103 = load ptr, ptr %6, align 8, !tbaa !30
  %104 = call i32 @Gia_ObjFaninC1(ptr noundef %103)
  %105 = sext i32 %104 to i64
  %106 = getelementptr inbounds [2 x i32], ptr %8, i64 0, i64 %105
  %107 = load i32, ptr %106, align 4, !tbaa !8
  %108 = add i32 %102, %107
  %109 = load ptr, ptr %6, align 8, !tbaa !30
  %110 = call ptr @Gia_ObjFanin1(ptr noundef %109)
  %111 = getelementptr inbounds nuw %struct.Gia_Obj_t_, ptr %110, i32 0, i32 1
  %112 = load i32, ptr %111, align 4, !tbaa !31
  %113 = add i32 %112, %108
  store i32 %113, ptr %111, align 4, !tbaa !31
  br label %114

114:                                              ; preds = %85, %81
  br label %115

115:                                              ; preds = %114
  %116 = load i32, ptr %7, align 4, !tbaa !8
  %117 = add nsw i32 %116, 1
  store i32 %117, ptr %7, align 4, !tbaa !8
  br label %67, !llvm.loop !52

118:                                              ; preds = %79
  br label %119

119:                                              ; preds = %118, %65
  call void @llvm.lifetime.end.p0(i64 8, ptr %8) #11
  call void @llvm.lifetime.end.p0(i64 4, ptr %7) #11
  call void @llvm.lifetime.end.p0(i64 8, ptr %6) #11
  br label %120

120:                                              ; preds = %119
  %121 = load i32, ptr %5, align 4, !tbaa !8
  %122 = add nsw i32 %121, 1
  store i32 %122, ptr %5, align 4, !tbaa !8
  br label %12, !llvm.loop !53

123:                                              ; preds = %21
  %124 = load ptr, ptr %3, align 8, !tbaa !50
  call void @llvm.lifetime.end.p0(i64 4, ptr %5) #11
  call void @llvm.lifetime.end.p0(i64 8, ptr %4) #11
  call void @llvm.lifetime.end.p0(i64 8, ptr %3) #11
  ret ptr %124
}