; Function Attrs: nounwind uwtable
define ptr @Gia_Iso4Gia(ptr noundef %0) local_unnamed_addr #2 {
  %2 = alloca [2 x i32], align 4
  %3 = tail call ptr @Gia_ManLevelizeR(ptr noundef %0) #19
  %4 = tail call i32 @Abc_Random(i32 noundef 1) #19
  %5 = getelementptr i8, ptr %3, i64 4
  %.val4859 = load i32, ptr %5, align 4, !tbaa !48
  %6 = icmp sgt i32 %.val4859, 0
  br i1 %6, label %.lr.ph61, label %.critedge

.lr.ph61:                                         ; preds = %1
  %7 = getelementptr i8, ptr %3, i64 8
  %8 = getelementptr inbounds nuw i8, ptr %2, i64 4
  %9 = getelementptr i8, ptr %0, i64 32
  br label %10

10:                                               ; preds = %.lr.ph61, %.critedge2
  %indvars.iv67 = phi i64 [ 0, %.lr.ph61 ], [ %indvars.iv.next68, %.critedge2 ]
  %.val49 = load ptr, ptr %7, align 8, !tbaa !50
  %11 = getelementptr inbounds nuw %struct.Vec_Int_t_, ptr %.val49, i64 %indvars.iv67
  call void @llvm.lifetime.start.p0(i64 8, ptr nonnull %2) #19
  %12 = tail call i32 @Abc_Random(i32 noundef 0) #19
  store i32 %12, ptr %2, align 4, !tbaa !29
  %13 = tail call i32 @Abc_Random(i32 noundef 0) #19
  store i32 %13, ptr %8, align 4, !tbaa !29
  %14 = icmp eq i64 %indvars.iv67, 0
  %15 = getelementptr i8, ptr %11, i64 4
  %.val4755 = load i32, ptr %15, align 4, !tbaa !36
  %16 = icmp sgt i32 %.val4755, 0
  br i1 %14, label %.preheader, label %.preheader51

.preheader51:                                     ; preds = %10
  br i1 %16, label %.lr.ph, label %.critedge2

.lr.ph:                                           ; preds = %.preheader51
  %17 = getelementptr i8, ptr %11, i64 8
  %.val45 = load ptr, ptr %17, align 8, !tbaa !34
  %.val = load ptr, ptr %9, align 8, !tbaa !28
  %.not = icmp eq ptr %.val, null
  br i1 %.not, label %.critedge2, label %.lr.ph.split.preheader

.lr.ph.split.preheader:                           ; preds = %.lr.ph
  %wide.trip.count = zext nneg i32 %.val4755 to i64
  br label %.lr.ph.split

.preheader:                                       ; preds = %10
  br i1 %16, label %.lr.ph57, label %.critedge2

.lr.ph57:                                         ; preds = %.preheader
  %18 = getelementptr i8, ptr %11, i64 8
  br label %19

19:                                               ; preds = %.lr.ph57, %20
  %indvars.iv64 = phi i64 [ 0, %.lr.ph57 ], [ %indvars.iv.next65, %20 ]
  %.val39 = load ptr, ptr %9, align 8, !tbaa !28
  %.not38 = icmp eq ptr %.val39, null
  br i1 %.not38, label %.critedge2, label %20

20:                                               ; preds = %19
  %.val44 = load ptr, ptr %18, align 8, !tbaa !34
  %21 = getelementptr inbounds nuw i32, ptr %.val44, i64 %indvars.iv64
  %22 = load i32, ptr %21, align 4, !tbaa !29
  %23 = sext i32 %22 to i64
  %24 = getelementptr inbounds %struct.Gia_Obj_t_, ptr %.val39, i64 %23
  %25 = tail call i32 @Abc_Random(i32 noundef 0) #19
  %26 = getelementptr inbounds nuw i8, ptr %24, i64 8
  store i32 %25, ptr %26, align 4, !tbaa !30
  %.val42 = load i64, ptr %24, align 4
  %27 = lshr i64 %.val42, 29
  %28 = and i64 %27, 1
  %29 = getelementptr inbounds nuw [2 x i32], ptr %2, i64 0, i64 %28
  %30 = load i32, ptr %29, align 4, !tbaa !29
  %31 = add i32 %30, %25
  %32 = and i64 %.val42, 536870911
  %33 = sub nsw i64 0, %32
  %34 = getelementptr inbounds %struct.Gia_Obj_t_, ptr %24, i64 %33, i32 1
  %35 = load i32, ptr %34, align 4, !tbaa !30
  %36 = add i32 %31, %35
  store i32 %36, ptr %34, align 4, !tbaa !30
  %indvars.iv.next65 = add nuw nsw i64 %indvars.iv64, 1
  %.val47 = load i32, ptr %15, align 4, !tbaa !36
  %37 = sext i32 %.val47 to i64
  %38 = icmp slt i64 %indvars.iv.next65, %37
  br i1 %38, label %19, label %.critedge2, !llvm.loop !51

.lr.ph.split:                                     ; preds = %.lr.ph.split.preheader, %70
  %indvars.iv = phi i64 [ 0, %.lr.ph.split.preheader ], [ %indvars.iv.next, %70 ]
  %39 = getelementptr inbounds nuw i32, ptr %.val45, i64 %indvars.iv
  %40 = load i32, ptr %39, align 4, !tbaa !29
  %41 = sext i32 %40 to i64
  %42 = getelementptr inbounds %struct.Gia_Obj_t_, ptr %.val, i64 %41
  %.val40 = load i64, ptr %42, align 4
  %43 = and i64 %.val40, 2147483648
  %.not.i = icmp ne i64 %43, 0
  %44 = and i64 %.val40, 536870911
  %45 = icmp eq i64 %44, 536870911
  %narrow.i.not = or i1 %.not.i, %45
  br i1 %narrow.i.not, label %70, label %46

46:                                               ; preds = %.lr.ph.split
  %47 = getelementptr inbounds nuw i8, ptr %42, i64 8
  %48 = load i32, ptr %47, align 4, !tbaa !30
  %49 = lshr i64 %.val40, 29
  %50 = and i64 %49, 1
  %51 = getelementptr inbounds nuw [2 x i32], ptr %2, i64 0, i64 %50
  %52 = load i32, ptr %51, align 4, !tbaa !29
  %53 = add i32 %52, %48
  %54 = sub nsw i64 0, %44
  %55 = getelementptr inbounds %struct.Gia_Obj_t_, ptr %42, i64 %54, i32 1
  %56 = load i32, ptr %55, align 4, !tbaa !30
  %57 = add i32 %53, %56
  store i32 %57, ptr %55, align 4, !tbaa !30
  %58 = load i32, ptr %47, align 4, !tbaa !30
  %59 = lshr i64 %.val40, 61
  %60 = and i64 %59, 1
  %61 = getelementptr inbounds nuw [2 x i32], ptr %2, i64 0, i64 %60
  %62 = load i32, ptr %61, align 4, !tbaa !29
  %63 = add i32 %62, %58
  %64 = lshr i64 %.val40, 32
  %65 = and i64 %64, 536870911
  %66 = sub nsw i64 0, %65
  %67 = getelementptr inbounds %struct.Gia_Obj_t_, ptr %42, i64 %66, i32 1
  %68 = load i32, ptr %67, align 4, !tbaa !30
  %69 = add i32 %63, %68
  store i32 %69, ptr %67, align 4, !tbaa !30
  br label %70

70:                                               ; preds = %.lr.ph.split, %46
  %indvars.iv.next = add nuw nsw i64 %indvars.iv, 1
  %exitcond.not = icmp eq i64 %indvars.iv.next, %wide.trip.count
  br i1 %exitcond.not, label %.critedge2, label %.lr.ph.split, !llvm.loop !52

.critedge2:                                       ; preds = %70, %20, %19, %.preheader51, %.lr.ph, %.preheader
  call void @llvm.lifetime.end.p0(i64 8, ptr nonnull %2) #19
  %indvars.iv.next68 = add nuw nsw i64 %indvars.iv67, 1
  %.val48 = load i32, ptr %5, align 4, !tbaa !48
  %71 = sext i32 %.val48 to i64
  %72 = icmp slt i64 %indvars.iv.next68, %71
  br i1 %72, label %10, label %.critedge, !llvm.loop !53

.critedge:                                        ; preds = %.critedge2, %1
  ret ptr %3
}